Certificate:
    Data:
        Version: 3 (0x2)
        Serial Number: 305419896 (0x12345678)
        Signature Algorithm: sha256WithRSAEncryption
        Issuer: CN=CA1_sha256_2048_65537_v3_ca
        Validity
            Not Before: Jul 26 05:52:02 2024 GMT
            Not After : Jul 24 05:52:02 2034 GMT
        Subject: CN=SRK1_sha256_2048_65537_v3_ca
        Subject Public Key Info:
            Public Key Algorithm: rsaEncryption
                RSA Public-Key: (2048 bit)
                Modulus:
                    00:a9:06:87:c9:ad:61:f0:6c:67:19:68:4d:bf:a2:
                    68:4b:7c:0a:fc:75:32:fd:70:62:19:bc:b6:e8:af:
                    de:75:fd:b7:4a:82:30:e9:16:6d:0e:b7:f0:f4:28:
                    ca:c6:1a:3f:81:6b:73:f3:10:43:fd:d1:2e:14:55:
                    61:17:d4:1b:aa:fc:a6:b8:ab:76:df:79:6b:fb:c6:
                    f7:8d:e4:8c:5f:31:b6:00:24:22:f6:cf:5b:5b:b1:
                    b7:04:57:be:a9:db:fb:df:2c:d1:64:a7:97:4e:ab:
                    5f:46:d2:70:28:8f:27:bc:cd:d9:39:4e:fe:0a:8c:
                    ab:99:0c:11:53:52:77:32:05:49:f7:e8:d9:b5:03:
                    cc:2a:e8:67:e8:e4:53:bf:46:5c:32:f8:0b:4e:09:
                    6e:4d:f5:7d:9a:be:71:43:9f:09:98:e8:8e:9e:d5:
                    ca:3a:c7:a7:20:71:60:29:63:41:0a:a5:8a:c2:e1:
                    da:71:09:88:5d:2b:34:7e:0e:16:43:cd:59:cf:e5:
                    60:10:de:da:d2:1b:64:1c:46:68:65:7e:eb:f5:c3:
                    4c:14:aa:c2:49:ac:7b:cf:2d:a9:c0:d1:78:7c:b7:
                    20:35:14:29:9c:95:b8:f5:54:74:57:8d:6f:d4:f2:
                    bd:f5:ad:79:66:45:a6:b2:35:a8:71:4a:03:71:f4:
                    cd:e7
                Exponent: 65537 (0x10001)
        X509v3 extensions:
            X509v3 Subject Key Identifier: 
                CF:C9:D9:A1:77:05:49:33:9C:27:86:46:6F:56:0B:76:E1:BC:84:BA
            X509v3 Authority Key Identifier: 
                keyid:83:18:D2:8F:62:69:B4:CB:DC:DF:4F:B9:5D:33:58:60:77:BB:57:FA
                DirName:/CN=CA1_sha256_2048_65537_v3_ca
                serial:55:5A:ED:82:79:57:6A:1C:10:A4:9E:68:EA:23:52:E7:92:43:85:8E

            X509v3 Basic Constraints: critical
                CA:TRUE
            X509v3 Key Usage: 
                Certificate Sign
    Signature Algorithm: sha256WithRSAEncryption
         b5:6a:54:be:65:91:b3:1d:91:df:b2:f9:45:3f:72:40:01:ca:
         f5:b2:23:da:d4:a7:a8:6a:14:4a:a4:f6:5b:37:ae:50:ea:a7:
         9b:e7:69:1a:91:07:87:22:94:db:d1:96:7e:d4:f8:3d:5d:d7:
         26:26:13:0a:4a:d6:9e:19:9c:37:ef:3f:e8:31:e9:20:aa:14:
         67:9d:e3:3e:2d:28:a9:64:55:ac:90:e7:22:a8:85:f3:a5:44:
         95:86:2d:25:a8:0a:fa:2a:88:20:da:4f:d6:5e:57:d3:f2:44:
         d9:11:b2:7b:5d:0a:9e:90:a7:f1:52:40:5b:41:c5:c9:9c:75:
         26:ad:f2:4b:00:24:09:bf:f8:ee:98:1c:a1:2f:20:62:07:de:
         d6:36:71:65:92:42:d6:74:04:ad:4d:b5:21:c6:da:2a:1f:24:
         8f:f8:d0:d8:81:8c:12:96:6c:3a:7b:c9:10:3c:f6:aa:96:55:
         9a:6e:af:9f:c8:7c:09:4d:0d:47:6a:b0:2b:e9:b2:bf:a7:5d:
         c5:cd:b2:36:a4:42:6e:22:47:23:e4:64:ca:8c:19:96:e2:23:
         74:ee:dd:55:15:71:82:04:11:47:3d:38:12:28:85:18:b3:95:
         69:1c:a8:3e:c5:c6:38:dc:f4:fd:26:4a:12:13:43:04:fb:30:
         f0:1e:79:14
-----BEGIN CERTIFICATE-----
MIIDbzCCAlegAwIBAgIEEjRWeDANBgkqhkiG9w0BAQsFADAmMSQwIgYDVQQDFBtD
QTFfc2hhMjU2XzIwNDhfNjU1MzdfdjNfY2EwHhcNMjQwNzI2MDU1MjAyWhcNMzQw
NzI0MDU1MjAyWjAnMSUwIwYDVQQDDBxTUksxX3NoYTI1Nl8yMDQ4XzY1NTM3X3Yz
X2NhMIIBIjANBgkqhkiG9w0BAQEFAAOCAQ8AMIIBCgKCAQEAqQaHya1h8GxnGWhN
v6JoS3wK/HUy/XBiGby26K/edf23SoIw6RZtDrfw9CjKxho/gWtz8xBD/dEuFFVh
F9QbqvymuKt233lr+8b3jeSMXzG2ACQi9s9bW7G3BFe+qdv73yzRZKeXTqtfRtJw
KI8nvM3ZOU7+CoyrmQwRU1J3MgVJ9+jZtQPMKuhn6ORTv0ZcMvgLTgluTfV9mr5x
Q58JmOiOntXKOsenIHFgKWNBCqWKwuHacQmIXSs0fg4WQ81Zz+VgEN7a0htkHEZo
ZX7r9cNMFKrCSax7zy2pwNF4fLcgNRQpnJW49VR0V41v1PK99a15ZkWmsjWocUoD
cfTN5wIDAQABo4GjMIGgMB0GA1UdDgQWBBTPydmhdwVJM5wnhkZvVgt24byEujBh
BgNVHSMEWjBYgBSDGNKPYmm0y9zfT7ldM1hgd7tX+qEqpCgwJjEkMCIGA1UEAxQb
Q0ExX3NoYTI1Nl8yMDQ4XzY1NTM3X3YzX2NhghRVWu2CeVdqHBCknmjqI1LnkkOF
jjAPBgNVHRMBAf8EBTADAQH/MAsGA1UdDwQEAwICBDANBgkqhkiG9w0BAQsFAAOC
AQEAtWpUvmWRsx2R37L5RT9yQAHK9bIj2tSnqGoUSqT2WzeuUOqnm+dpGpEHhyKU
29GWftT4PV3XJiYTCkrWnhmcN+8/6DHpIKoUZ53jPi0oqWRVrJDnIqiF86VElYYt
JagK+iqIINpP1l5X0/JE2RGye10KnpCn8VJAW0HFyZx1Jq3ySwAkCb/47pgcoS8g
Ygfe1jZxZZJC1nQErU21IcbaKh8kj/jQ2IGMEpZsOnvJEDz2qpZVmm6vn8h8CU0N
R2qwK+myv6ddxc2yNqRCbiJHI+RkyowZluIjdO7dVRVxggQRRz04EiiFGLOVaRyo
PsXGONz0/SZKEhNDBPsw8B55FA==
-----END CERTIFICATE-----
