Certificate:
    Data:
        Version: 3 (0x2)
        Serial Number: 305419898 (0x1234567a)
        Signature Algorithm: sha256WithRSAEncryption
        Issuer: CN=SRK1_sha256_2048_65537_v3_ca
        Validity
            Not Before: Jul 26 05:52:02 2024 GMT
            Not After : Jul 24 05:52:02 2034 GMT
        Subject: CN=IMG1_1_sha256_2048_65537_v3_usr
        Subject Public Key Info:
            Public Key Algorithm: rsaEncryption
                RSA Public-Key: (2048 bit)
                Modulus:
                    00:c1:7f:9b:e7:ac:e0:d8:55:3a:d2:b9:3c:38:b1:
                    84:50:c6:5d:09:3f:cd:cb:45:45:e3:c2:a3:ae:78:
                    a4:f7:f9:f0:f4:02:e7:8d:cc:63:25:92:b4:f2:61:
                    45:e0:a9:2d:72:4d:b6:9b:07:59:cd:ce:c3:27:3e:
                    d9:e2:ba:81:f9:24:01:58:3c:7a:a1:0f:a1:3e:7b:
                    16:09:76:78:53:a7:1c:25:a1:9d:bb:49:90:aa:e0:
                    0e:16:34:6f:5f:7e:2d:8a:27:88:c6:d3:ea:5d:6f:
                    cd:c6:c0:7a:1f:76:fc:77:2b:bf:e4:45:b0:47:d2:
                    ab:f8:84:b8:00:c0:37:a1:4e:e5:1d:64:e1:43:ab:
                    c6:fe:d1:4e:4c:1e:91:5e:81:92:9d:ee:94:16:82:
                    31:14:bd:e5:72:4e:a2:3d:e2:8d:69:91:ee:b6:28:
                    a6:e1:33:ed:e0:5d:f1:d4:96:d9:7a:38:74:8d:48:
                    e8:ce:c7:ce:6d:d3:56:a9:67:32:81:43:2f:b0:82:
                    64:fe:8c:ee:39:11:93:6f:62:d0:a1:5a:d3:45:54:
                    0d:12:2e:00:49:9c:27:18:66:97:64:1c:02:b3:ab:
                    dc:fd:15:91:3d:46:01:b8:b2:6a:d3:ab:f2:8d:5c:
                    1d:ab:b1:57:c8:b4:d7:29:7d:d6:db:9b:6c:a0:5f:
                    49:e9
                Exponent: 65537 (0x10001)
        X509v3 extensions:
            X509v3 Basic Constraints: 
                CA:FALSE
            Netscape Comment: 
                OpenSSL Generated Certificate
            X509v3 Subject Key Identifier: 
                D7:A0:F6:8A:90:EF:68:58:E7:7B:E9:8C:7C:A0:45:14:61:E5:8C:97
            X509v3 Authority Key Identifier: 
                keyid:CF:C9:D9:A1:77:05:49:33:9C:27:86:46:6F:56:0B:76:E1:BC:84:BA

    Signature Algorithm: sha256WithRSAEncryption
         54:e2:8e:f7:b9:fc:55:67:e6:c3:70:72:4c:5b:6c:20:e8:7e:
         48:8d:89:e1:79:9b:9f:48:ec:06:ce:7a:87:6a:1e:7f:f3:45:
         2d:1c:f8:5b:71:29:a9:97:89:e4:3e:a8:d9:64:c4:ab:fc:ff:
         5b:6a:d1:b5:c2:71:7e:c8:ef:2d:d9:5c:7e:50:13:76:cf:25:
         b4:70:37:ef:65:bf:03:83:51:3a:22:8e:a4:6f:50:23:e1:a7:
         2b:49:c6:83:b3:1d:85:10:0c:73:13:dd:f2:94:4e:cb:61:e0:
         ff:d9:37:ec:54:1e:e2:67:c0:ad:5a:7d:20:29:d0:09:b7:37:
         9c:e2:79:6a:2a:1d:e1:06:5b:18:c9:00:a0:de:c2:8e:99:86:
         ff:e1:e1:9d:80:98:f8:6e:ff:c1:48:7e:ec:b3:9a:44:18:87:
         db:88:b5:52:98:de:aa:31:7e:ed:f7:14:31:59:d6:87:07:d3:
         bd:0a:07:d9:a5:c1:3d:4f:7f:4b:30:18:3b:dc:52:dd:4c:c6:
         04:43:bf:70:81:2f:08:bc:8f:90:ad:73:87:ec:28:3e:a2:b4:
         d0:6b:a8:66:d1:bf:b8:7e:9f:cd:64:26:a5:b6:be:07:d9:40:
         0d:dc:e8:93:85:54:02:d6:df:ff:fd:1c:b4:5c:c0:b7:82:09:
         1b:1a:f9:5e
-----BEGIN CERTIFICATE-----
MIIDSjCCAjKgAwIBAgIEEjRWejANBgkqhkiG9w0BAQsFADAnMSUwIwYDVQQDDBxT
UksxX3NoYTI1Nl8yMDQ4XzY1NTM3X3YzX2NhMB4XDTI0MDcyNjA1NTIwMloXDTM0
MDcyNDA1NTIwMlowKjEoMCYGA1UEAwwfSU1HMV8xX3NoYTI1Nl8yMDQ4XzY1NTM3
X3YzX3VzcjCCASIwDQYJKoZIhvcNAQEBBQADggEPADCCAQoCggEBAMF/m+es4NhV
OtK5PDixhFDGXQk/zctFRePCo654pPf58PQC543MYyWStPJhReCpLXJNtpsHWc3O
wyc+2eK6gfkkAVg8eqEPoT57Fgl2eFOnHCWhnbtJkKrgDhY0b19+LYoniMbT6l1v
zcbAeh92/Hcrv+RFsEfSq/iEuADAN6FO5R1k4UOrxv7RTkwekV6Bkp3ulBaCMRS9
5XJOoj3ijWmR7rYopuEz7eBd8dSW2Xo4dI1I6M7Hzm3TVqlnMoFDL7CCZP6M7jkR
k29i0KFa00VUDRIuAEmcJxhml2QcArOr3P0VkT1GAbiyatOr8o1cHauxV8i01yl9
1tubbKBfSekCAwEAAaN7MHkwCQYDVR0TBAIwADAsBglghkgBhvhCAQ0EHxYdT3Bl
blNTTCBHZW5lcmF0ZWQgQ2VydGlmaWNhdGUwHQYDVR0OBBYEFNeg9oqQ72hY53vp
jHygRRRh5YyXMB8GA1UdIwQYMBaAFM/J2aF3BUkznCeGRm9WC3bhvIS6MA0GCSqG
SIb3DQEBCwUAA4IBAQBU4o73ufxVZ+bDcHJMW2wg6H5IjYnheZufSOwGznqHah5/
80UtHPhbcSmpl4nkPqjZZMSr/P9batG1wnF+yO8t2Vx+UBN2zyW0cDfvZb8Dg1E6
Io6kb1Aj4acrScaDsx2FEAxzE93ylE7LYeD/2TfsVB7iZ8CtWn0gKdAJtzec4nlq
Kh3hBlsYyQCg3sKOmYb/4eGdgJj4bv/BSH7ss5pEGIfbiLVSmN6qMX7t9xQxWdaH
B9O9CgfZpcE9T39LMBg73FLdTMYEQ79wgS8IvI+QrXOH7Cg+orTQa6hm0b+4fp/N
ZCaltr4H2UAN3OiThVQC1t///Ry0XMC3ggkbGvle
-----END CERTIFICATE-----
