Certificate:
    Data:
        Version: 3 (0x2)
        Serial Number: 305419897 (0x12345679)
        Signature Algorithm: sha256WithRSAEncryption
        Issuer: CN=SRK1_sha256_2048_65537_v3_ca
        Validity
            Not Before: Jul 26 05:52:02 2024 GMT
            Not After : Jul 24 05:52:02 2034 GMT
        Subject: CN=CSF1_1_sha256_2048_65537_v3_usr
        Subject Public Key Info:
            Public Key Algorithm: rsaEncryption
                RSA Public-Key: (2048 bit)
                Modulus:
                    00:cc:fe:fa:52:65:fa:05:45:5b:83:a5:24:b2:52:
                    93:a3:a4:47:5b:77:2c:7e:12:94:ea:23:28:22:40:
                    b0:69:89:6f:ad:e9:82:8a:9f:4d:bc:da:3e:d4:ad:
                    60:77:cb:cb:90:2e:5a:d2:3d:5b:27:32:90:c3:d0:
                    63:a5:cf:3d:fa:1e:20:ff:21:00:90:78:e3:47:d0:
                    9d:02:0b:d4:4a:ec:32:75:78:ff:ad:67:7a:a3:92:
                    cf:30:9a:34:73:ee:4a:bb:7f:f6:cb:38:b0:49:82:
                    71:74:a2:57:53:35:03:60:92:7c:7c:97:fe:c2:69:
                    ca:27:e8:97:7a:d3:49:2d:2c:28:ba:a4:a3:77:b7:
                    4f:75:44:19:e2:36:06:5a:63:44:2d:50:69:67:cb:
                    ed:36:13:c5:a6:83:93:80:6b:0f:4d:0d:be:68:71:
                    49:10:63:5a:58:47:fb:99:ae:0d:ec:58:5a:22:fd:
                    7e:c0:eb:c3:16:62:3a:52:eb:36:f3:13:61:50:21:
                    6d:65:25:1b:fa:27:05:59:cf:8e:f2:65:57:de:5f:
                    b4:ed:86:fe:79:05:2d:d1:04:2c:f9:72:2b:13:03:
                    d2:48:75:4c:55:24:2a:2a:fb:96:6e:be:a1:fd:05:
                    cd:c8:8f:2f:4d:98:78:cb:d4:8b:25:d2:ea:51:54:
                    13:23
                Exponent: 65537 (0x10001)
        X509v3 extensions:
            X509v3 Basic Constraints: 
                CA:FALSE
            Netscape Comment: 
                OpenSSL Generated Certificate
            X509v3 Subject Key Identifier: 
                BD:FB:D7:8F:41:56:C7:6E:8E:38:92:9D:08:FF:AC:E5:DA:67:F8:70
            X509v3 Authority Key Identifier: 
                keyid:CF:C9:D9:A1:77:05:49:33:9C:27:86:46:6F:56:0B:76:E1:BC:84:BA

    Signature Algorithm: sha256WithRSAEncryption
         8c:c0:c8:a3:78:c1:8b:81:b9:4e:f0:e1:1d:51:7c:b6:f6:63:
         d2:90:b1:4b:9e:45:01:79:67:70:29:20:4c:28:fd:80:08:ad:
         27:74:49:ab:22:78:23:7a:e2:2f:a5:a1:d6:e3:c9:ef:dd:fb:
         c7:6f:72:42:e2:64:e4:1d:8b:9c:ca:98:cb:2a:24:f4:64:49:
         f3:52:58:77:a9:52:38:b7:94:95:4d:82:75:a7:c5:ed:2a:ab:
         05:89:ed:be:ae:ff:63:06:58:c7:10:8f:3b:92:9e:18:1b:37:
         ab:d3:35:69:e9:66:78:b6:64:b0:45:cd:e3:3e:63:25:0b:b9:
         76:d8:66:13:8b:2b:26:0a:57:66:e4:1d:52:47:f5:da:43:1f:
         92:21:b0:9f:24:4e:d2:a3:14:53:4b:b3:26:d1:e5:14:b5:f2:
         85:d4:8a:27:04:a9:f8:8c:80:a9:d1:72:5e:93:7e:3e:49:d6:
         f2:32:ae:23:29:1f:21:90:8f:ef:b3:0e:7d:10:3e:89:70:86:
         a2:9a:b7:cb:28:40:1f:5d:56:c2:dd:0e:5b:9f:93:56:9c:7a:
         15:b4:a1:bc:eb:40:b0:a2:52:42:08:dd:c0:9d:3a:fb:2c:90:
         c6:cd:42:a0:53:2c:2f:3e:67:73:eb:a7:43:c9:3a:61:30:38:
         f6:67:d6:23
-----BEGIN CERTIFICATE-----
MIIDSjCCAjKgAwIBAgIEEjRWeTANBgkqhkiG9w0BAQsFADAnMSUwIwYDVQQDDBxT
UksxX3NoYTI1Nl8yMDQ4XzY1NTM3X3YzX2NhMB4XDTI0MDcyNjA1NTIwMloXDTM0
MDcyNDA1NTIwMlowKjEoMCYGA1UEAwwfQ1NGMV8xX3NoYTI1Nl8yMDQ4XzY1NTM3
X3YzX3VzcjCCASIwDQYJKoZIhvcNAQEBBQADggEPADCCAQoCggEBAMz++lJl+gVF
W4OlJLJSk6OkR1t3LH4SlOojKCJAsGmJb63pgoqfTbzaPtStYHfLy5AuWtI9Wycy
kMPQY6XPPfoeIP8hAJB440fQnQIL1ErsMnV4/61neqOSzzCaNHPuSrt/9ss4sEmC
cXSiV1M1A2CSfHyX/sJpyifol3rTSS0sKLqko3e3T3VEGeI2BlpjRC1QaWfL7TYT
xaaDk4BrD00NvmhxSRBjWlhH+5muDexYWiL9fsDrwxZiOlLrNvMTYVAhbWUlG/on
BVnPjvJlV95ftO2G/nkFLdEELPlyKxMD0kh1TFUkKir7lm6+of0FzciPL02YeMvU
iyXS6lFUEyMCAwEAAaN7MHkwCQYDVR0TBAIwADAsBglghkgBhvhCAQ0EHxYdT3Bl
blNTTCBHZW5lcmF0ZWQgQ2VydGlmaWNhdGUwHQYDVR0OBBYEFL37149BVsdujjiS
nQj/rOXaZ/hwMB8GA1UdIwQYMBaAFM/J2aF3BUkznCeGRm9WC3bhvIS6MA0GCSqG
SIb3DQEBCwUAA4IBAQCMwMijeMGLgblO8OEdUXy29mPSkLFLnkUBeWdwKSBMKP2A
CK0ndEmrIngjeuIvpaHW48nv3fvHb3JC4mTkHYucypjLKiT0ZEnzUlh3qVI4t5SV
TYJ1p8XtKqsFie2+rv9jBljHEI87kp4YGzer0zVp6WZ4tmSwRc3jPmMlC7l22GYT
iysmCldm5B1SR/XaQx+SIbCfJE7SoxRTS7Mm0eUUtfKF1IonBKn4jICp0XJek34+
SdbyMq4jKR8hkI/vsw59ED6JcIaimrfLKEAfXVbC3Q5bn5NWnHoVtKG860CwolJC
CN3AnTr7LJDGzUKgUywvPmdz66dDyTphMDj2Z9Yj
-----END CERTIFICATE-----
