Certificate:
    Data:
        Version: 3 (0x2)
        Serial Number: 305419900 (0x1234567c)
        Signature Algorithm: sha256WithRSAEncryption
        Issuer: CN=SRK2_sha256_2048_65537_v3_ca
        Validity
            Not Before: Jul 26 05:52:02 2024 GMT
            Not After : Jul 24 05:52:02 2034 GMT
        Subject: CN=CSF2_1_sha256_2048_65537_v3_usr
        Subject Public Key Info:
            Public Key Algorithm: rsaEncryption
                RSA Public-Key: (2048 bit)
                Modulus:
                    00:da:05:6e:8c:01:b0:e4:83:70:9f:90:cd:a4:a6:
                    e2:f1:d9:67:9b:a2:a2:81:f4:c9:89:e7:43:d8:d5:
                    19:21:6a:e3:1e:68:c6:aa:ba:a6:e5:56:43:65:39:
                    4e:f4:3b:b9:b2:9b:4c:ee:64:7b:aa:c2:a0:ba:6b:
                    e5:3b:04:a3:2d:6f:e6:da:b0:19:6f:fa:68:63:06:
                    74:d5:84:4b:a3:af:fe:1a:4c:e5:a7:81:7d:d3:9d:
                    19:65:88:ef:7e:45:ee:7b:b7:03:f2:a6:a0:1f:8e:
                    7c:e0:fe:62:59:ae:6b:79:60:2e:9e:3b:a4:9f:ca:
                    e9:a9:3c:3a:fc:55:e2:9c:ae:01:fc:42:23:55:1f:
                    15:21:83:10:9b:66:c1:30:b2:51:bd:d9:f1:0e:30:
                    0e:cb:fb:e8:d9:5d:34:2b:fa:49:d1:c5:2c:94:dd:
                    1e:52:0a:60:c0:41:6f:ad:e9:56:a1:52:8f:10:1f:
                    f0:6e:b6:75:1b:f8:fa:86:87:a8:f5:d1:dd:53:a8:
                    28:0a:ae:4f:fb:6d:9d:f9:b3:fe:92:57:16:ab:62:
                    10:f3:18:6a:1f:ff:b1:ac:e9:1c:56:e2:7a:0e:b6:
                    d1:98:c0:0e:56:2a:0c:5e:6b:1b:53:52:05:f9:cb:
                    b0:0f:0d:a1:5d:7f:7b:25:57:8d:32:ad:f2:a7:fb:
                    ac:7d
                Exponent: 65537 (0x10001)
        X509v3 extensions:
            X509v3 Basic Constraints: 
                CA:FALSE
            Netscape Comment: 
                OpenSSL Generated Certificate
            X509v3 Subject Key Identifier: 
                61:63:74:0B:25:E5:19:B7:FC:80:09:F4:45:28:E6:E6:F7:A3:C2:C1
            X509v3 Authority Key Identifier: 
                keyid:0B:D6:51:D4:B0:9A:BB:DF:5D:9E:66:A5:96:77:A2:6C:AB:38:CC:0B

    Signature Algorithm: sha256WithRSAEncryption
         00:cd:b1:b7:da:19:bb:29:1d:fa:2d:cc:6b:cc:db:5c:2a:6b:
         7b:5f:12:00:dd:e8:6f:8a:73:7c:f6:42:e4:ab:cd:ae:56:68:
         fc:64:fb:1d:3d:fe:cd:01:5d:81:fc:b0:ec:e9:3d:a6:2b:b9:
         7b:18:f5:fd:e9:81:bb:5c:a7:a0:66:24:dd:b6:a8:c6:07:42:
         23:b8:66:06:0e:5e:ca:46:8a:39:f6:ba:fc:36:71:bc:e8:fc:
         66:1f:0f:06:84:8b:dc:ad:6b:17:cd:2a:5c:60:58:c4:65:2f:
         74:22:23:b9:1a:5a:19:ae:bc:a3:d7:ca:1e:b6:75:38:ac:eb:
         65:ee:4a:06:b2:ce:48:90:47:36:aa:10:67:17:5f:84:4c:b5:
         c5:ae:0e:f5:b3:72:df:cb:92:9f:74:4f:a9:cc:13:0a:0e:c8:
         c8:d7:3a:5e:64:79:e6:ac:59:50:17:11:c9:d8:f7:4b:fa:c1:
         e8:50:07:49:bd:1d:61:01:1a:29:39:c0:97:2b:dc:a4:a7:57:
         57:9a:e2:cd:84:05:b1:2e:f3:81:94:4e:76:da:88:02:23:67:
         6a:f5:47:69:49:2e:c5:a5:c0:9f:45:09:91:40:47:25:47:d5:
         5f:05:2c:c4:a5:ce:6d:1c:17:ed:47:f6:5e:ff:ba:db:d3:34:
         14:78:af:a7
-----BEGIN CERTIFICATE-----
MIIDSjCCAjKgAwIBAgIEEjRWfDANBgkqhkiG9w0BAQsFADAnMSUwIwYDVQQDDBxT
UksyX3NoYTI1Nl8yMDQ4XzY1NTM3X3YzX2NhMB4XDTI0MDcyNjA1NTIwMloXDTM0
MDcyNDA1NTIwMlowKjEoMCYGA1UEAwwfQ1NGMl8xX3NoYTI1Nl8yMDQ4XzY1NTM3
X3YzX3VzcjCCASIwDQYJKoZIhvcNAQEBBQADggEPADCCAQoCggEBANoFbowBsOSD
cJ+QzaSm4vHZZ5uiooH0yYnnQ9jVGSFq4x5oxqq6puVWQ2U5TvQ7ubKbTO5ke6rC
oLpr5TsEoy1v5tqwGW/6aGMGdNWES6Ov/hpM5aeBfdOdGWWI735F7nu3A/KmoB+O
fOD+Ylmua3lgLp47pJ/K6ak8OvxV4pyuAfxCI1UfFSGDEJtmwTCyUb3Z8Q4wDsv7
6NldNCv6SdHFLJTdHlIKYMBBb63pVqFSjxAf8G62dRv4+oaHqPXR3VOoKAquT/tt
nfmz/pJXFqtiEPMYah//sazpHFbieg620ZjADlYqDF5rG1NSBfnLsA8NoV1/eyVX
jTKt8qf7rH0CAwEAAaN7MHkwCQYDVR0TBAIwADAsBglghkgBhvhCAQ0EHxYdT3Bl
blNTTCBHZW5lcmF0ZWQgQ2VydGlmaWNhdGUwHQYDVR0OBBYEFGFjdAsl5Rm3/IAJ
9EUo5ub3o8LBMB8GA1UdIwQYMBaAFAvWUdSwmrvfXZ5mpZZ3omyrOMwLMA0GCSqG
SIb3DQEBCwUAA4IBAQAAzbG32hm7KR36LcxrzNtcKmt7XxIA3ehvinN89kLkq82u
Vmj8ZPsdPf7NAV2B/LDs6T2mK7l7GPX96YG7XKegZiTdtqjGB0IjuGYGDl7KRoo5
9rr8NnG86PxmHw8GhIvcrWsXzSpcYFjEZS90IiO5GloZrryj18oetnU4rOtl7koG
ss5IkEc2qhBnF1+ETLXFrg71s3Lfy5KfdE+pzBMKDsjI1zpeZHnmrFlQFxHJ2PdL
+sHoUAdJvR1hARopOcCXK9ykp1dXmuLNhAWxLvOBlE522ogCI2dq9UdpSS7FpcCf
RQmRQEclR9VfBSzEpc5tHBftR/Ze/7rb0zQUeK+n
-----END CERTIFICATE-----
