Certificate:
    Data:
        Version: 3 (0x2)
        Serial Number: 305419903 (0x1234567f)
        Signature Algorithm: sha256WithRSAEncryption
        Issuer: CN=SRK3_sha256_2048_65537_v3_ca
        Validity
            Not Before: Jul 26 05:52:02 2024 GMT
            Not After : Jul 24 05:52:02 2034 GMT
        Subject: CN=CSF3_1_sha256_2048_65537_v3_usr
        Subject Public Key Info:
            Public Key Algorithm: rsaEncryption
                RSA Public-Key: (2048 bit)
                Modulus:
                    00:b4:3c:46:bc:f1:d3:d5:36:bb:74:2a:51:80:f6:
                    35:cc:d2:29:84:69:4f:28:57:8d:d8:bc:2f:63:91:
                    fe:cf:7b:b2:e5:a3:e6:87:a5:a2:eb:43:4b:d5:59:
                    c0:b7:e0:ac:48:66:a3:4b:ae:b4:05:a3:c7:94:e4:
                    31:bf:01:33:49:47:1a:cf:6c:f1:e3:d1:2d:ef:2d:
                    84:bb:46:6a:1f:f9:92:e7:19:80:96:2d:d6:6e:77:
                    c5:9d:b4:aa:ee:5a:f5:4c:c4:51:5f:c6:63:ee:36:
                    9a:b1:6d:59:eb:3a:e6:b0:52:4c:fb:0d:f8:cd:f1:
                    c7:eb:14:17:29:43:bf:13:03:c0:5c:3c:5b:c1:b6:
                    64:36:6e:16:d9:f1:06:65:aa:05:62:33:9f:d1:6c:
                    c1:7e:0a:71:93:27:08:74:87:f2:ed:8e:1e:bb:1f:
                    ff:80:f4:19:25:35:d7:0d:0d:0c:ce:0c:47:8d:75:
                    8b:9d:d6:37:fc:b5:5e:ab:dd:21:da:4d:03:2f:51:
                    53:d1:a5:a2:84:28:95:50:9f:30:14:f7:b0:de:84:
                    05:0c:6b:80:1d:97:1a:06:01:37:80:0a:39:7e:6b:
                    31:11:95:dc:a0:48:16:9e:84:07:0d:71:ec:21:ba:
                    9d:a1:41:3d:ee:30:62:a1:9e:a8:5b:2c:30:2f:a4:
                    2f:b5
                Exponent: 65537 (0x10001)
        X509v3 extensions:
            X509v3 Basic Constraints: 
                CA:FALSE
            Netscape Comment: 
                OpenSSL Generated Certificate
            X509v3 Subject Key Identifier: 
                D4:CD:21:52:70:9E:6C:C0:EB:03:06:31:E1:12:6A:73:48:14:DA:45
            X509v3 Authority Key Identifier: 
                keyid:20:EE:EE:45:10:25:7B:19:C5:DB:E6:CE:06:4D:86:4B:69:B4:27:0A

    Signature Algorithm: sha256WithRSAEncryption
         7d:cd:bb:f0:71:d2:63:0f:b6:57:3e:4b:7c:16:90:8f:95:63:
         d3:bb:54:0f:51:36:eb:bd:b4:36:27:6e:cc:1d:ff:1d:bf:e1:
         c6:ee:82:e6:02:fc:14:e9:07:7f:61:ee:31:b1:13:66:3e:7d:
         f7:08:d2:c9:d8:57:e0:10:1e:18:6b:10:76:41:34:d2:6b:70:
         66:45:83:01:36:68:93:83:10:55:83:1c:eb:7b:53:51:1e:0a:
         27:6c:66:6d:79:cf:29:d5:a2:04:a9:88:0e:aa:78:9e:61:c4:
         74:17:0d:01:19:2a:45:18:05:91:8f:a2:8d:af:13:ed:34:7c:
         57:d6:a0:5a:cc:57:a3:ef:0d:f8:15:08:8b:a7:28:c3:45:dc:
         f8:f0:4f:b7:fb:7a:3e:53:ef:40:da:7f:1b:0e:cd:3b:de:b1:
         45:3c:3b:63:d2:d4:1d:a9:3d:c7:2e:7d:b4:75:35:e2:a9:ad:
         f9:53:5a:ea:4c:0d:ce:69:13:eb:dd:bd:94:9c:8f:b1:59:c5:
         0a:03:58:ca:ae:03:48:ae:44:ce:94:31:47:c8:6d:ce:90:f1:
         ad:92:51:83:7a:22:d3:1c:75:d8:a2:cd:9d:aa:e6:a0:38:6d:
         83:fc:7c:85:3c:eb:85:ed:c0:75:c9:a4:3c:18:97:36:be:bf:
         ce:43:2b:2b
-----BEGIN CERTIFICATE-----
MIIDSjCCAjKgAwIBAgIEEjRWfzANBgkqhkiG9w0BAQsFADAnMSUwIwYDVQQDDBxT
UkszX3NoYTI1Nl8yMDQ4XzY1NTM3X3YzX2NhMB4XDTI0MDcyNjA1NTIwMloXDTM0
MDcyNDA1NTIwMlowKjEoMCYGA1UEAwwfQ1NGM18xX3NoYTI1Nl8yMDQ4XzY1NTM3
X3YzX3VzcjCCASIwDQYJKoZIhvcNAQEBBQADggEPADCCAQoCggEBALQ8Rrzx09U2
u3QqUYD2NczSKYRpTyhXjdi8L2OR/s97suWj5oeloutDS9VZwLfgrEhmo0uutAWj
x5TkMb8BM0lHGs9s8ePRLe8thLtGah/5kucZgJYt1m53xZ20qu5a9UzEUV/GY+42
mrFtWes65rBSTPsN+M3xx+sUFylDvxMDwFw8W8G2ZDZuFtnxBmWqBWIzn9FswX4K
cZMnCHSH8u2OHrsf/4D0GSU11w0NDM4MR411i53WN/y1XqvdIdpNAy9RU9GlooQo
lVCfMBT3sN6EBQxrgB2XGgYBN4AKOX5rMRGV3KBIFp6EBw1x7CG6naFBPe4wYqGe
qFssMC+kL7UCAwEAAaN7MHkwCQYDVR0TBAIwADAsBglghkgBhvhCAQ0EHxYdT3Bl
blNTTCBHZW5lcmF0ZWQgQ2VydGlmaWNhdGUwHQYDVR0OBBYEFNTNIVJwnmzA6wMG
MeESanNIFNpFMB8GA1UdIwQYMBaAFCDu7kUQJXsZxdvmzgZNhktptCcKMA0GCSqG
SIb3DQEBCwUAA4IBAQB9zbvwcdJjD7ZXPkt8FpCPlWPTu1QPUTbrvbQ2J27MHf8d
v+HG7oLmAvwU6Qd/Ye4xsRNmPn33CNLJ2FfgEB4YaxB2QTTSa3BmRYMBNmiTgxBV
gxzre1NRHgonbGZtec8p1aIEqYgOqnieYcR0Fw0BGSpFGAWRj6KNrxPtNHxX1qBa
zFej7w34FQiLpyjDRdz48E+3+3o+U+9A2n8bDs073rFFPDtj0tQdqT3HLn20dTXi
qa35U1rqTA3OaRPr3b2UnI+xWcUKA1jKrgNIrkTOlDFHyG3OkPGtklGDeiLTHHXY
os2dquagOG2D/HyFPOuF7cB1yaQ8GJc2vr/OQysr
-----END CERTIFICATE-----
