Certificate:
    Data:
        Version: 3 (0x2)
        Serial Number: 305419906 (0x12345682)
        Signature Algorithm: sha256WithRSAEncryption
        Issuer: CN=SRK4_sha256_2048_65537_v3_ca
        Validity
            Not Before: Jul 26 05:52:02 2024 GMT
            Not After : Jul 24 05:52:02 2034 GMT
        Subject: CN=CSF4_1_sha256_2048_65537_v3_usr
        Subject Public Key Info:
            Public Key Algorithm: rsaEncryption
                RSA Public-Key: (2048 bit)
                Modulus:
                    00:b7:36:e7:18:45:9d:78:d3:92:cf:4f:82:f4:bf:
                    b4:19:d5:08:ea:70:d2:6e:d0:8f:3f:6d:49:0c:7a:
                    33:fe:d2:65:bb:a2:1e:f4:2a:26:c1:90:76:77:44:
                    88:30:25:31:ff:bb:5e:c4:4a:61:5a:b5:f4:d4:95:
                    3f:dc:ae:e3:db:fa:ae:02:5f:7d:a9:7a:9d:8e:1e:
                    2e:75:fd:34:f7:65:03:0d:a2:d7:9c:d4:b2:e4:6b:
                    fc:e4:6c:7f:9e:0f:c5:db:49:6d:51:8a:68:8c:d6:
                    36:47:ed:78:5b:9d:e4:7d:dd:03:34:34:6c:e6:b5:
                    39:31:2b:7b:f3:9d:7d:90:c5:27:de:a5:dd:f6:6a:
                    0d:5a:4d:9d:51:c7:ab:15:d2:b5:7b:b3:f9:98:02:
                    e2:21:51:af:e2:8f:e6:3a:81:67:0d:6f:15:7a:e0:
                    90:e7:51:75:6a:be:20:53:08:ca:28:4b:80:d7:c9:
                    3c:18:ea:f0:83:c8:49:9e:df:2f:ab:d2:be:90:1e:
                    ad:1f:cf:5e:08:f3:a2:37:33:74:d3:73:5d:20:d4:
                    5a:a1:d7:70:15:b0:24:eb:a7:d2:6a:f9:5a:5a:ed:
                    97:62:f0:e0:85:3b:fb:34:c4:de:0a:53:d7:70:53:
                    1f:05:72:29:ee:07:5f:fd:03:f3:49:44:86:e5:ff:
                    16:3f
                Exponent: 65537 (0x10001)
        X509v3 extensions:
            X509v3 Basic Constraints: 
                CA:FALSE
            Netscape Comment: 
                OpenSSL Generated Certificate
            X509v3 Subject Key Identifier: 
                35:FE:11:5B:E2:FE:43:B2:1D:78:47:F9:6C:EB:57:B3:79:AB:39:69
            X509v3 Authority Key Identifier: 
                keyid:29:7A:B2:23:00:0B:98:F1:BD:B8:7A:2A:9B:8B:6D:F7:0C:10:D4:23

    Signature Algorithm: sha256WithRSAEncryption
         63:81:17:d3:83:48:b4:fa:2a:73:e5:4a:de:16:19:88:fe:bb:
         ee:96:96:9a:24:33:fe:6a:39:56:45:e7:5b:94:fc:8a:b7:1d:
         e6:25:93:3c:b8:db:ce:01:d8:61:b2:5d:5c:dc:62:29:c0:a4:
         df:f8:3e:ce:8f:00:53:70:aa:51:16:07:50:63:67:fa:fb:18:
         0e:97:a0:6c:d2:bc:9a:56:e0:c0:5a:c0:5f:81:7d:d9:fd:25:
         a2:63:ef:91:03:ec:2d:60:9a:58:13:9b:8a:7f:bb:22:8c:05:
         71:30:d5:71:a1:36:90:3d:5e:1a:0a:ad:5f:1f:75:1e:44:ad:
         78:e1:c7:e2:93:c1:43:07:14:d6:3d:83:fa:f1:80:95:6a:a4:
         ac:5f:bd:f8:13:c6:d9:e8:66:53:5d:b9:40:82:c0:7a:90:62:
         5e:f3:8d:e7:22:b2:ed:1d:15:41:2d:1a:cb:aa:b5:f3:cd:29:
         e3:79:3f:0f:f8:3e:e0:93:41:c2:71:16:f8:8f:ee:8b:5d:b1:
         de:92:a9:38:7a:e6:94:7f:c6:06:89:9f:cc:e6:93:17:47:00:
         f3:59:0a:49:a4:f9:55:65:34:65:10:c2:4b:55:03:6f:dc:62:
         0f:4d:e8:a4:df:39:b9:3e:e0:a8:61:8d:79:7e:42:b0:f3:b6:
         96:91:15:1d
-----BEGIN CERTIFICATE-----
MIIDSjCCAjKgAwIBAgIEEjRWgjANBgkqhkiG9w0BAQsFADAnMSUwIwYDVQQDDBxT
Uks0X3NoYTI1Nl8yMDQ4XzY1NTM3X3YzX2NhMB4XDTI0MDcyNjA1NTIwMloXDTM0
MDcyNDA1NTIwMlowKjEoMCYGA1UEAwwfQ1NGNF8xX3NoYTI1Nl8yMDQ4XzY1NTM3
X3YzX3VzcjCCASIwDQYJKoZIhvcNAQEBBQADggEPADCCAQoCggEBALc25xhFnXjT
ks9PgvS/tBnVCOpw0m7Qjz9tSQx6M/7SZbuiHvQqJsGQdndEiDAlMf+7XsRKYVq1
9NSVP9yu49v6rgJffal6nY4eLnX9NPdlAw2i15zUsuRr/ORsf54PxdtJbVGKaIzW
NkfteFud5H3dAzQ0bOa1OTEre/OdfZDFJ96l3fZqDVpNnVHHqxXStXuz+ZgC4iFR
r+KP5jqBZw1vFXrgkOdRdWq+IFMIyihLgNfJPBjq8IPISZ7fL6vSvpAerR/PXgjz
ojczdNNzXSDUWqHXcBWwJOun0mr5Wlrtl2Lw4IU7+zTE3gpT13BTHwVyKe4HX/0D
80lEhuX/Fj8CAwEAAaN7MHkwCQYDVR0TBAIwADAsBglghkgBhvhCAQ0EHxYdT3Bl
blNTTCBHZW5lcmF0ZWQgQ2VydGlmaWNhdGUwHQYDVR0OBBYEFDX+EVvi/kOyHXhH
+WzrV7N5qzlpMB8GA1UdIwQYMBaAFCl6siMAC5jxvbh6KpuLbfcMENQjMA0GCSqG
SIb3DQEBCwUAA4IBAQBjgRfTg0i0+ipz5UreFhmI/rvulpaaJDP+ajlWRedblPyK
tx3mJZM8uNvOAdhhsl1c3GIpwKTf+D7OjwBTcKpRFgdQY2f6+xgOl6Bs0ryaVuDA
WsBfgX3Z/SWiY++RA+wtYJpYE5uKf7sijAVxMNVxoTaQPV4aCq1fH3UeRK144cfi
k8FDBxTWPYP68YCVaqSsX734E8bZ6GZTXblAgsB6kGJe843nIrLtHRVBLRrLqrXz
zSnjeT8P+D7gk0HCcRb4j+6LXbHekqk4euaUf8YGiZ/M5pMXRwDzWQpJpPlVZTRl
EMJLVQNv3GIPTeik3zm5PuCoYY15fkKw87aWkRUd
-----END CERTIFICATE-----
