Certificate:
    Data:
        Version: 3 (0x2)
        Serial Number: 305419901 (0x1234567d)
        Signature Algorithm: sha256WithRSAEncryption
        Issuer: CN=SRK2_sha256_2048_65537_v3_ca
        Validity
            Not Before: Jul 26 05:52:02 2024 GMT
            Not After : Jul 24 05:52:02 2034 GMT
        Subject: CN=IMG2_1_sha256_2048_65537_v3_usr
        Subject Public Key Info:
            Public Key Algorithm: rsaEncryption
                RSA Public-Key: (2048 bit)
                Modulus:
                    00:b6:e1:2f:18:43:e9:ce:f7:3e:d8:8f:77:6b:5e:
                    1f:25:0e:a6:db:60:4f:fb:e1:14:d2:02:68:61:28:
                    2a:fd:f2:a1:41:e6:d1:c9:f3:66:45:25:a5:23:16:
                    6f:07:de:f8:eb:87:80:d8:53:a2:06:16:43:44:8a:
                    67:aa:0b:b2:71:47:fc:23:60:f8:e8:43:d4:36:51:
                    e3:0c:a6:e5:cb:bc:86:db:9f:14:6e:29:84:8b:fd:
                    c5:50:f3:76:da:e5:4e:58:64:1b:60:f7:e8:5a:9e:
                    4d:c4:32:f6:21:d3:ae:7c:50:1e:e0:24:b6:ff:51:
                    48:c1:ec:a1:50:8c:40:2b:44:54:38:4c:88:73:06:
                    f1:a7:6f:b0:92:98:cb:ef:cd:ff:b5:f7:be:dc:08:
                    91:62:8e:a2:30:f8:76:61:5d:8b:3c:6b:06:d0:0e:
                    eb:f5:af:cb:d8:ed:8f:81:0f:0c:87:17:b6:e9:4b:
                    af:37:b3:f3:63:9c:35:bb:ec:4f:30:e2:07:2a:a4:
                    85:0e:b0:2d:79:8f:52:fa:91:fa:e3:f1:18:05:9d:
                    93:9d:c1:9e:4f:65:d6:c4:a1:b0:b2:d7:dd:3e:da:
                    8d:33:b4:8a:a7:5b:84:35:51:be:88:b7:d0:77:db:
                    09:d2:03:69:92:9f:d4:58:aa:5a:a2:77:0b:a7:ac:
                    53:07
                Exponent: 65537 (0x10001)
        X509v3 extensions:
            X509v3 Basic Constraints: 
                CA:FALSE
            Netscape Comment: 
                OpenSSL Generated Certificate
            X509v3 Subject Key Identifier: 
                D5:DD:2D:C4:3C:57:84:38:4C:75:D4:EE:AB:64:11:80:38:7B:09:8B
            X509v3 Authority Key Identifier: 
                keyid:0B:D6:51:D4:B0:9A:BB:DF:5D:9E:66:A5:96:77:A2:6C:AB:38:CC:0B

    Signature Algorithm: sha256WithRSAEncryption
         91:2e:da:31:04:3d:42:6c:f0:20:08:f6:e8:92:42:29:07:7a:
         4c:c9:58:bd:5e:18:13:af:5a:34:5c:91:06:b9:6e:9d:17:e7:
         f1:fe:90:08:2a:e6:5a:cf:ee:1e:d6:2b:5b:81:bf:1c:b5:7c:
         67:3a:35:b5:e3:c0:7f:d7:59:4e:cf:c1:8a:83:96:d5:76:e6:
         39:f0:56:8b:08:d0:de:10:ff:f2:32:f4:81:bf:c1:aa:54:47:
         6c:d6:c1:2c:69:38:f6:e4:62:9e:44:4a:f0:44:83:cf:0d:9d:
         43:87:e5:6c:98:35:28:22:05:86:60:2b:28:97:0a:6d:83:3c:
         fc:fc:03:f4:fc:a1:9a:d5:54:20:3d:5f:bb:e9:53:c4:7d:dd:
         7a:7f:5f:2b:ea:86:5c:65:4c:3e:f0:6d:17:b9:02:c3:ed:6e:
         86:2e:0f:9a:8e:a9:83:7b:7f:cd:9e:97:9d:7b:8d:da:72:f3:
         e3:9b:43:a3:df:26:91:c0:b7:d5:8e:74:58:cd:f6:e3:b0:03:
         26:35:67:2f:98:2f:02:15:2f:ed:c9:f5:78:86:47:f0:68:d4:
         3f:b0:42:e2:1d:3f:80:b7:7b:62:ee:35:d2:5b:e2:02:3d:8c:
         5a:d1:12:a0:db:d4:9c:05:1c:5b:94:0c:c3:2f:fe:eb:81:22:
         a8:78:e4:ea
-----BEGIN CERTIFICATE-----
MIIDSjCCAjKgAwIBAgIEEjRWfTANBgkqhkiG9w0BAQsFADAnMSUwIwYDVQQDDBxT
UksyX3NoYTI1Nl8yMDQ4XzY1NTM3X3YzX2NhMB4XDTI0MDcyNjA1NTIwMloXDTM0
MDcyNDA1NTIwMlowKjEoMCYGA1UEAwwfSU1HMl8xX3NoYTI1Nl8yMDQ4XzY1NTM3
X3YzX3VzcjCCASIwDQYJKoZIhvcNAQEBBQADggEPADCCAQoCggEBALbhLxhD6c73
PtiPd2teHyUOpttgT/vhFNICaGEoKv3yoUHm0cnzZkUlpSMWbwfe+OuHgNhTogYW
Q0SKZ6oLsnFH/CNg+OhD1DZR4wym5cu8htufFG4phIv9xVDzdtrlTlhkG2D36Fqe
TcQy9iHTrnxQHuAktv9RSMHsoVCMQCtEVDhMiHMG8advsJKYy+/N/7X3vtwIkWKO
ojD4dmFdizxrBtAO6/Wvy9jtj4EPDIcXtulLrzez82OcNbvsTzDiByqkhQ6wLXmP
UvqR+uPxGAWdk53Bnk9l1sShsLLX3T7ajTO0iqdbhDVRvoi30HfbCdIDaZKf1Fiq
WqJ3C6esUwcCAwEAAaN7MHkwCQYDVR0TBAIwADAsBglghkgBhvhCAQ0EHxYdT3Bl
blNTTCBHZW5lcmF0ZWQgQ2VydGlmaWNhdGUwHQYDVR0OBBYEFNXdLcQ8V4Q4THXU
7qtkEYA4ewmLMB8GA1UdIwQYMBaAFAvWUdSwmrvfXZ5mpZZ3omyrOMwLMA0GCSqG
SIb3DQEBCwUAA4IBAQCRLtoxBD1CbPAgCPbokkIpB3pMyVi9XhgTr1o0XJEGuW6d
F+fx/pAIKuZaz+4e1itbgb8ctXxnOjW148B/11lOz8GKg5bVduY58FaLCNDeEP/y
MvSBv8GqVEds1sEsaTj25GKeRErwRIPPDZ1Dh+VsmDUoIgWGYCsolwptgzz8/AP0
/KGa1VQgPV+76VPEfd16f18r6oZcZUw+8G0XuQLD7W6GLg+ajqmDe3/Nnpede43a
cvPjm0Oj3yaRwLfVjnRYzfbjsAMmNWcvmC8CFS/tyfV4hkfwaNQ/sELiHT+At3ti
7jXSW+ICPYxa0RKg29ScBRxblAzDL/7rgSKoeOTq
-----END CERTIFICATE-----
