Certificate:
    Data:
        Version: 3 (0x2)
        Serial Number: 305419904 (0x12345680)
        Signature Algorithm: sha256WithRSAEncryption
        Issuer: CN=SRK3_sha256_2048_65537_v3_ca
        Validity
            Not Before: Jul 26 05:52:02 2024 GMT
            Not After : Jul 24 05:52:02 2034 GMT
        Subject: CN=IMG3_1_sha256_2048_65537_v3_usr
        Subject Public Key Info:
            Public Key Algorithm: rsaEncryption
                RSA Public-Key: (2048 bit)
                Modulus:
                    00:c4:9c:fd:5a:d6:1e:c0:cd:d0:62:bf:ad:0e:04:
                    cd:ba:5a:57:4a:b7:f1:74:2b:28:89:9a:9d:e4:96:
                    5a:d6:e2:af:79:21:d6:52:54:c5:68:21:1f:73:3b:
                    b5:f5:f1:e2:d8:7f:d5:d9:47:47:62:9b:33:0e:2f:
                    05:84:e4:6a:06:fc:f2:ec:09:1b:5b:a8:03:ea:ba:
                    ec:8f:f7:42:c9:13:55:fe:b5:9a:97:1d:a2:fb:b6:
                    8c:13:00:dd:05:aa:c8:af:57:c4:fe:a1:54:0e:e4:
                    7b:52:e7:9a:24:e8:ed:31:fd:dd:2e:5c:53:f3:33:
                    20:1e:94:60:b1:78:35:2c:e3:94:83:05:41:5b:22:
                    0e:0c:2d:aa:78:be:5c:75:37:f2:fe:0d:45:32:4a:
                    f0:3c:4e:5c:4d:da:dd:10:4d:30:6a:86:89:2b:41:
                    68:76:5f:ca:81:ad:be:83:4f:d4:97:52:a4:d4:35:
                    38:8e:df:a8:d7:d3:04:73:bc:34:8d:f8:49:24:96:
                    5c:ac:a9:a8:92:27:42:31:e3:ca:5b:f1:fc:0f:15:
                    4b:ec:f7:86:00:a0:43:4f:bc:00:1b:91:b3:be:74:
                    6c:f8:d6:10:c1:32:09:5e:03:55:5a:aa:0e:cb:90:
                    6f:c3:98:26:b7:53:94:9c:a1:17:ba:00:96:45:79:
                    8f:1d
                Exponent: 65537 (0x10001)
        X509v3 extensions:
            X509v3 Basic Constraints: 
                CA:FALSE
            Netscape Comment: 
                OpenSSL Generated Certificate
            X509v3 Subject Key Identifier: 
                CD:CA:C7:1F:79:74:A4:29:37:16:32:9F:90:A5:E1:DE:11:0B:94:20
            X509v3 Authority Key Identifier: 
                keyid:20:EE:EE:45:10:25:7B:19:C5:DB:E6:CE:06:4D:86:4B:69:B4:27:0A

    Signature Algorithm: sha256WithRSAEncryption
         3d:af:38:30:81:da:2f:fe:ac:80:8a:97:37:58:69:02:08:5f:
         51:85:1e:d2:ac:d8:2f:0a:19:65:18:9d:59:40:08:7b:6f:ea:
         3e:e3:50:0b:f7:14:a7:7b:9b:df:5a:5c:ed:e8:08:f2:79:66:
         46:16:d5:87:2f:34:10:0e:57:10:7b:16:70:2a:21:08:05:4b:
         c6:49:92:28:d5:9a:37:4d:9e:24:1f:bd:8e:dc:89:d5:24:a7:
         b1:13:00:89:14:69:01:1c:2f:45:c4:23:45:b6:15:00:3d:a3:
         56:44:7f:ce:60:0c:40:cc:ca:be:ba:cc:e3:e2:d8:c1:8b:6d:
         4b:2d:28:89:23:73:ac:a8:54:19:e7:53:27:f5:80:66:55:6e:
         65:c2:48:71:b5:6d:51:d2:d6:8d:db:0f:18:ff:54:82:95:af:
         b8:66:e9:4f:8e:d1:4a:76:b1:6b:95:de:77:66:ee:3d:58:df:
         25:44:6d:2a:26:8b:51:37:05:3b:33:a4:79:10:d7:20:c0:2b:
         5a:00:bf:5d:ba:6d:46:d8:4d:e1:14:fe:2b:d2:32:bc:98:d1:
         1a:95:b7:39:58:f2:60:21:4f:bc:40:2d:e5:43:71:85:f1:f7:
         15:6c:e0:0c:ee:bd:1c:bc:79:e0:1b:d5:41:1a:7d:32:b9:3c:
         65:40:34:1c
-----BEGIN CERTIFICATE-----
MIIDSjCCAjKgAwIBAgIEEjRWgDANBgkqhkiG9w0BAQsFADAnMSUwIwYDVQQDDBxT
UkszX3NoYTI1Nl8yMDQ4XzY1NTM3X3YzX2NhMB4XDTI0MDcyNjA1NTIwMloXDTM0
MDcyNDA1NTIwMlowKjEoMCYGA1UEAwwfSU1HM18xX3NoYTI1Nl8yMDQ4XzY1NTM3
X3YzX3VzcjCCASIwDQYJKoZIhvcNAQEBBQADggEPADCCAQoCggEBAMSc/VrWHsDN
0GK/rQ4EzbpaV0q38XQrKImaneSWWtbir3kh1lJUxWghH3M7tfXx4th/1dlHR2Kb
Mw4vBYTkagb88uwJG1uoA+q67I/3QskTVf61mpcdovu2jBMA3QWqyK9XxP6hVA7k
e1LnmiTo7TH93S5cU/MzIB6UYLF4NSzjlIMFQVsiDgwtqni+XHU38v4NRTJK8DxO
XE3a3RBNMGqGiStBaHZfyoGtvoNP1JdSpNQ1OI7fqNfTBHO8NI34SSSWXKypqJIn
QjHjylvx/A8VS+z3hgCgQ0+8ABuRs750bPjWEMEyCV4DVVqqDsuQb8OYJrdTlJyh
F7oAlkV5jx0CAwEAAaN7MHkwCQYDVR0TBAIwADAsBglghkgBhvhCAQ0EHxYdT3Bl
blNTTCBHZW5lcmF0ZWQgQ2VydGlmaWNhdGUwHQYDVR0OBBYEFM3Kxx95dKQpNxYy
n5Cl4d4RC5QgMB8GA1UdIwQYMBaAFCDu7kUQJXsZxdvmzgZNhktptCcKMA0GCSqG
SIb3DQEBCwUAA4IBAQA9rzgwgdov/qyAipc3WGkCCF9RhR7SrNgvChllGJ1ZQAh7
b+o+41AL9xSne5vfWlzt6AjyeWZGFtWHLzQQDlcQexZwKiEIBUvGSZIo1Zo3TZ4k
H72O3InVJKexEwCJFGkBHC9FxCNFthUAPaNWRH/OYAxAzMq+uszj4tjBi21LLSiJ
I3OsqFQZ51Mn9YBmVW5lwkhxtW1R0taN2w8Y/1SCla+4ZulPjtFKdrFrld53Zu49
WN8lRG0qJotRNwU7M6R5ENcgwCtaAL9dum1G2E3hFP4r0jK8mNEalbc5WPJgIU+8
QC3lQ3GF8fcVbOAM7r0cvHngG9VBGn0yuTxlQDQc
-----END CERTIFICATE-----
