Certificate:
    Data:
        Version: 3 (0x2)
        Serial Number: 305419907 (0x12345683)
        Signature Algorithm: sha256WithRSAEncryption
        Issuer: CN=SRK4_sha256_2048_65537_v3_ca
        Validity
            Not Before: Jul 26 05:52:02 2024 GMT
            Not After : Jul 24 05:52:02 2034 GMT
        Subject: CN=IMG4_1_sha256_2048_65537_v3_usr
        Subject Public Key Info:
            Public Key Algorithm: rsaEncryption
                RSA Public-Key: (2048 bit)
                Modulus:
                    00:b7:31:fd:5f:75:93:b3:9e:8b:a8:c4:7e:89:67:
                    8b:85:87:bc:90:66:e3:88:f0:8e:76:5c:b6:c6:3b:
                    00:37:e6:50:bf:a2:e1:40:80:f7:c5:47:25:40:0b:
                    11:c9:6d:29:95:2a:6b:80:ef:7d:86:8b:6a:2f:4a:
                    6d:e4:a0:80:f0:c7:68:5a:b6:6a:8e:98:a5:a5:4c:
                    af:af:54:d8:8f:3d:7d:20:87:b3:ed:74:a7:ac:1e:
                    ff:df:e7:00:45:6c:95:a8:63:60:41:e4:c3:aa:69:
                    2f:84:bd:da:38:6d:55:5b:33:3e:5c:69:ea:6b:14:
                    ab:a3:07:2c:00:65:5d:5f:fd:d3:c9:d5:52:a4:c4:
                    5d:57:4a:9b:67:c8:1d:6b:47:4c:af:0d:d2:81:05:
                    06:16:90:b5:ce:85:da:6a:39:e8:37:a4:b4:f4:20:
                    23:63:09:09:6e:f6:ea:ff:ea:8c:3e:91:14:31:3d:
                    0c:7f:5c:ed:23:0b:cd:9f:84:26:24:0c:cf:ef:c8:
                    8b:31:d5:86:2d:ee:08:3d:b0:a3:f8:bd:d7:7a:f4:
                    ff:2d:01:bb:fc:41:8f:04:67:7f:44:29:6d:1a:2b:
                    80:d0:d8:b8:0f:7e:9c:28:1b:2e:a3:d6:10:28:05:
                    62:da:e8:85:9e:7a:29:9b:96:26:42:2c:7a:ed:5e:
                    83:f7
                Exponent: 65537 (0x10001)
        X509v3 extensions:
            X509v3 Basic Constraints: 
                CA:FALSE
            Netscape Comment: 
                OpenSSL Generated Certificate
            X509v3 Subject Key Identifier: 
                52:FE:38:E6:87:FC:F0:97:20:A2:7A:E5:BB:43:6A:1F:B7:2D:1C:A2
            X509v3 Authority Key Identifier: 
                keyid:29:7A:B2:23:00:0B:98:F1:BD:B8:7A:2A:9B:8B:6D:F7:0C:10:D4:23

    Signature Algorithm: sha256WithRSAEncryption
         b8:12:8b:6f:63:ae:f0:48:7f:7a:02:26:b0:aa:9b:e7:1f:8a:
         8f:a1:7d:b6:e0:fa:5f:db:6e:92:87:2a:12:d7:a8:ce:b8:91:
         5a:76:22:1e:44:c6:68:1f:97:c8:1e:79:f3:6b:74:48:64:a8:
         09:21:1e:46:8b:1f:12:af:88:b0:7d:a6:54:bc:8e:eb:2a:c9:
         46:8e:74:0c:b1:ae:47:55:e0:c8:f6:04:28:55:b1:01:1c:fc:
         5b:54:24:26:c1:a2:71:20:e3:c4:d9:33:4f:9b:43:87:b8:3d:
         99:a8:a8:89:c3:6c:c1:23:79:ec:b9:5b:fc:0c:43:f8:f6:b4:
         3b:59:01:9f:8a:a9:2a:d0:ca:1a:9b:33:95:df:c2:09:bf:9f:
         bf:2b:01:cf:de:0f:4d:8b:32:49:00:af:09:13:54:64:f1:7f:
         3c:1a:92:3b:ce:8f:a9:b4:9f:4f:5a:be:e5:55:9c:81:02:d7:
         d3:fe:7c:3a:5f:64:8c:64:ab:0c:d9:10:0b:10:f6:56:89:14:
         08:46:0a:22:1d:15:2d:a6:83:25:9e:08:da:38:b9:3a:5a:40:
         b6:f6:30:82:25:9d:b7:08:f0:66:f9:cc:53:c6:2b:19:c7:97:
         be:07:d6:09:ec:b3:a6:1e:88:bf:f0:a8:12:67:08:da:7f:eb:
         30:ad:1d:4b
-----BEGIN CERTIFICATE-----
MIIDSjCCAjKgAwIBAgIEEjRWgzANBgkqhkiG9w0BAQsFADAnMSUwIwYDVQQDDBxT
Uks0X3NoYTI1Nl8yMDQ4XzY1NTM3X3YzX2NhMB4XDTI0MDcyNjA1NTIwMloXDTM0
MDcyNDA1NTIwMlowKjEoMCYGA1UEAwwfSU1HNF8xX3NoYTI1Nl8yMDQ4XzY1NTM3
X3YzX3VzcjCCASIwDQYJKoZIhvcNAQEBBQADggEPADCCAQoCggEBALcx/V91k7Oe
i6jEfolni4WHvJBm44jwjnZctsY7ADfmUL+i4UCA98VHJUALEcltKZUqa4DvfYaL
ai9KbeSggPDHaFq2ao6YpaVMr69U2I89fSCHs+10p6we/9/nAEVslahjYEHkw6pp
L4S92jhtVVszPlxp6msUq6MHLABlXV/908nVUqTEXVdKm2fIHWtHTK8N0oEFBhaQ
tc6F2mo56DektPQgI2MJCW726v/qjD6RFDE9DH9c7SMLzZ+EJiQMz+/IizHVhi3u
CD2wo/i913r0/y0Bu/xBjwRnf0QpbRorgNDYuA9+nCgbLqPWECgFYtrohZ56KZuW
JkIseu1eg/cCAwEAAaN7MHkwCQYDVR0TBAIwADAsBglghkgBhvhCAQ0EHxYdT3Bl
blNTTCBHZW5lcmF0ZWQgQ2VydGlmaWNhdGUwHQYDVR0OBBYEFFL+OOaH/PCXIKJ6
5btDah+3LRyiMB8GA1UdIwQYMBaAFCl6siMAC5jxvbh6KpuLbfcMENQjMA0GCSqG
SIb3DQEBCwUAA4IBAQC4EotvY67wSH96AiawqpvnH4qPoX224Ppf226ShyoS16jO
uJFadiIeRMZoH5fIHnnza3RIZKgJIR5Gix8Sr4iwfaZUvI7rKslGjnQMsa5HVeDI
9gQoVbEBHPxbVCQmwaJxIOPE2TNPm0OHuD2ZqKiJw2zBI3nsuVv8DEP49rQ7WQGf
iqkq0MoamzOV38IJv5+/KwHP3g9NizJJAK8JE1Rk8X88GpI7zo+ptJ9PWr7lVZyB
AtfT/nw6X2SMZKsM2RALEPZWiRQIRgoiHRUtpoMlngjaOLk6WkC29jCCJZ23CPBm
+cxTxisZx5e+B9YJ7LOmHoi/8KgSZwjaf+swrR1L
-----END CERTIFICATE-----
