Certificate:
    Data:
        Version: 3 (0x2)
        Serial Number: 305419899 (0x1234567b)
        Signature Algorithm: sha256WithRSAEncryption
        Issuer: CN=CA1_sha256_2048_65537_v3_ca
        Validity
            Not Before: Jul 26 05:52:02 2024 GMT
            Not After : Jul 24 05:52:02 2034 GMT
        Subject: CN=SRK2_sha256_2048_65537_v3_ca
        Subject Public Key Info:
            Public Key Algorithm: rsaEncryption
                RSA Public-Key: (2048 bit)
                Modulus:
                    00:e7:63:54:3f:89:9b:a5:c7:64:08:84:f0:04:95:
                    37:0e:72:ef:9d:6a:88:64:4f:9c:0e:ac:31:7f:cb:
                    f5:12:76:63:d9:a0:e4:e1:5b:df:d2:fb:ff:90:0f:
                    ff:db:24:c0:1e:88:65:f0:d9:9e:75:de:f2:a3:64:
                    00:03:5d:8d:2a:14:c0:05:63:fa:22:b4:ee:96:16:
                    15:11:38:fd:eb:50:d4:f3:d4:fd:30:15:24:01:15:
                    ee:e2:55:72:49:e1:74:64:80:bd:3d:a9:60:5f:d6:
                    d7:6e:27:73:53:55:fa:7f:ac:bc:74:d3:a0:25:81:
                    da:20:fd:70:af:04:1a:cd:9f:ef:49:20:d0:9f:78:
                    f1:4d:d2:67:d9:9e:ab:39:2a:d5:3d:d3:a5:e5:e5:
                    27:e8:b1:a1:13:dc:75:c6:49:65:06:c3:0c:46:08:
                    a6:b8:7f:70:66:a9:60:b5:00:21:f5:fa:70:55:b7:
                    da:24:7d:ae:4c:60:76:3f:c9:d2:0e:94:3f:c3:aa:
                    5c:98:d0:dc:2b:c0:43:90:1a:99:82:c7:20:5c:da:
                    5f:ec:b8:9c:5a:bb:21:74:5e:0e:1b:05:87:f6:05:
                    50:e0:e9:6e:39:35:9e:d6:74:f9:c3:21:77:d0:42:
                    f2:b0:b0:4e:ed:60:bf:4d:59:c5:65:4d:eb:30:c5:
                    38:e1
                Exponent: 65537 (0x10001)
        X509v3 extensions:
            X509v3 Subject Key Identifier: 
                0B:D6:51:D4:B0:9A:BB:DF:5D:9E:66:A5:96:77:A2:6C:AB:38:CC:0B
            X509v3 Authority Key Identifier: 
                keyid:83:18:D2:8F:62:69:B4:CB:DC:DF:4F:B9:5D:33:58:60:77:BB:57:FA
                DirName:/CN=CA1_sha256_2048_65537_v3_ca
                serial:55:5A:ED:82:79:57:6A:1C:10:A4:9E:68:EA:23:52:E7:92:43:85:8E

            X509v3 Basic Constraints: critical
                CA:TRUE
            X509v3 Key Usage: 
                Certificate Sign
    Signature Algorithm: sha256WithRSAEncryption
         4d:cb:b7:ba:aa:1d:dd:04:48:b7:f1:13:cb:af:a6:24:42:45:
         73:fd:e3:4e:f8:f3:2d:e6:5d:9a:85:26:91:75:04:79:75:9e:
         fb:7e:80:c1:6d:97:54:bd:4f:ff:38:ac:ba:1f:29:c2:77:4d:
         25:98:9b:01:7a:39:b7:bf:04:91:a4:00:9f:5b:60:70:a0:e1:
         42:d7:35:40:84:af:5b:76:75:e0:19:7d:c6:17:7e:b5:36:f3:
         87:37:af:eb:13:ac:ff:23:28:ae:ba:d6:08:16:a6:f4:da:3d:
         f2:87:24:12:79:96:d2:39:ea:05:5d:fe:24:f4:cc:a9:2d:39:
         c5:90:ee:e3:a2:f8:94:6e:7b:d9:bc:64:dc:ad:ef:f9:fe:3e:
         7e:00:6e:ab:1b:24:ff:0f:62:27:a6:36:db:ff:b5:ac:9e:0f:
         1e:12:17:95:7a:01:d6:3f:e3:99:c0:c7:49:94:46:02:8f:87:
         c6:f9:24:0d:9b:17:bc:cd:ee:19:df:62:80:73:b8:fb:fa:d5:
         3d:a3:d7:b3:a3:6f:24:78:39:03:f6:c4:11:b0:74:d3:11:60:
         05:47:00:92:3a:ad:71:1f:8d:41:e3:ba:fa:03:4e:c2:73:e0:
         4d:e3:05:d4:e9:7e:41:42:1f:1b:b0:06:f6:e4:e2:19:34:45:
         79:b1:c4:3d
-----BEGIN CERTIFICATE-----
MIIDbzCCAlegAwIBAgIEEjRWezANBgkqhkiG9w0BAQsFADAmMSQwIgYDVQQDFBtD
QTFfc2hhMjU2XzIwNDhfNjU1MzdfdjNfY2EwHhcNMjQwNzI2MDU1MjAyWhcNMzQw
NzI0MDU1MjAyWjAnMSUwIwYDVQQDDBxTUksyX3NoYTI1Nl8yMDQ4XzY1NTM3X3Yz
X2NhMIIBIjANBgkqhkiG9w0BAQEFAAOCAQ8AMIIBCgKCAQEA52NUP4mbpcdkCITw
BJU3DnLvnWqIZE+cDqwxf8v1EnZj2aDk4Vvf0vv/kA//2yTAHohl8Nmedd7yo2QA
A12NKhTABWP6IrTulhYVETj961DU89T9MBUkARXu4lVySeF0ZIC9PalgX9bXbidz
U1X6f6y8dNOgJYHaIP1wrwQazZ/vSSDQn3jxTdJn2Z6rOSrVPdOl5eUn6LGhE9x1
xkllBsMMRgimuH9wZqlgtQAh9fpwVbfaJH2uTGB2P8nSDpQ/w6pcmNDcK8BDkBqZ
gscgXNpf7LicWrshdF4OGwWH9gVQ4OluOTWe1nT5wyF30ELysLBO7WC/TVnFZU3r
MMU44QIDAQABo4GjMIGgMB0GA1UdDgQWBBQL1lHUsJq7312eZqWWd6JsqzjMCzBh
BgNVHSMEWjBYgBSDGNKPYmm0y9zfT7ldM1hgd7tX+qEqpCgwJjEkMCIGA1UEAxQb
Q0ExX3NoYTI1Nl8yMDQ4XzY1NTM3X3YzX2NhghRVWu2CeVdqHBCknmjqI1LnkkOF
jjAPBgNVHRMBAf8EBTADAQH/MAsGA1UdDwQEAwICBDANBgkqhkiG9w0BAQsFAAOC
AQEATcu3uqod3QRIt/ETy6+mJEJFc/3jTvjzLeZdmoUmkXUEeXWe+36AwW2XVL1P
/zisuh8pwndNJZibAXo5t78EkaQAn1tgcKDhQtc1QISvW3Z14Bl9xhd+tTbzhzev
6xOs/yMorrrWCBam9No98ockEnmW0jnqBV3+JPTMqS05xZDu46L4lG572bxk3K3v
+f4+fgBuqxsk/w9iJ6Y22/+1rJ4PHhIXlXoB1j/jmcDHSZRGAo+HxvkkDZsXvM3u
Gd9igHO4+/rVPaPXs6NvJHg5A/bEEbB00xFgBUcAkjqtcR+NQeO6+gNOwnPgTeMF
1Ol+QUIfG7AG9uTiGTRFebHEPQ==
-----END CERTIFICATE-----
