Certificate:
    Data:
        Version: 3 (0x2)
        Serial Number: 305419902 (0x1234567e)
        Signature Algorithm: sha256WithRSAEncryption
        Issuer: CN=CA1_sha256_2048_65537_v3_ca
        Validity
            Not Before: Jul 26 05:52:02 2024 GMT
            Not After : Jul 24 05:52:02 2034 GMT
        Subject: CN=SRK3_sha256_2048_65537_v3_ca
        Subject Public Key Info:
            Public Key Algorithm: rsaEncryption
                RSA Public-Key: (2048 bit)
                Modulus:
                    00:c9:83:2c:d1:9d:e6:30:bd:64:fd:fb:55:9a:6b:
                    8f:8b:64:30:bd:0f:b5:48:3e:47:fa:2c:19:f5:2d:
                    4b:58:d0:b4:b7:db:3d:f3:7b:ff:8f:36:ed:bd:35:
                    ef:d9:4d:81:c6:11:37:fc:ea:85:1d:82:e6:de:2d:
                    20:ca:2f:b9:b6:7c:71:16:b9:5f:fe:6e:b2:3a:d5:
                    40:00:cd:ab:3e:fe:9e:ae:77:dc:81:c3:ef:1c:d2:
                    6c:83:23:31:af:a9:b9:3f:d2:2f:44:cf:df:f0:d5:
                    cc:0c:eb:c1:74:fc:a1:31:e7:76:ce:c0:48:4a:a6:
                    88:d3:08:26:fb:d7:52:5d:e8:86:e9:80:4a:d2:7f:
                    cd:ba:69:c7:a1:bd:ee:5c:3b:3d:b4:49:44:e2:31:
                    72:93:d2:dc:cd:dd:b4:0b:5a:ca:f9:34:dd:40:85:
                    e3:63:4c:4a:90:3a:01:bf:6a:ca:c7:10:7c:a8:7a:
                    23:8b:c1:fc:0b:21:3b:79:63:da:6a:c9:c0:a6:2a:
                    76:0f:d9:66:82:12:3e:68:ee:07:9f:72:fb:5c:7b:
                    86:4a:15:99:5a:c1:7c:96:b6:8e:5c:64:83:c9:fe:
                    be:11:5e:1d:00:8c:75:99:dc:72:5c:ce:1d:7a:60:
                    0d:c0:5f:a7:68:0d:af:0a:90:99:2f:b7:f6:fc:43:
                    1e:67
                Exponent: 65537 (0x10001)
        X509v3 extensions:
            X509v3 Subject Key Identifier: 
                20:EE:EE:45:10:25:7B:19:C5:DB:E6:CE:06:4D:86:4B:69:B4:27:0A
            X509v3 Authority Key Identifier: 
                keyid:83:18:D2:8F:62:69:B4:CB:DC:DF:4F:B9:5D:33:58:60:77:BB:57:FA
                DirName:/CN=CA1_sha256_2048_65537_v3_ca
                serial:55:5A:ED:82:79:57:6A:1C:10:A4:9E:68:EA:23:52:E7:92:43:85:8E

            X509v3 Basic Constraints: critical
                CA:TRUE
            X509v3 Key Usage: 
                Certificate Sign
    Signature Algorithm: sha256WithRSAEncryption
         7b:6e:20:12:8a:84:73:60:0a:e9:c8:86:55:b3:a1:b8:69:97:
         5c:0f:35:a7:9a:68:42:bd:21:ea:80:23:f1:da:fe:16:13:cd:
         c9:8f:c3:48:dc:c5:76:c9:5f:15:b9:d3:a5:98:23:83:4f:70:
         ef:f6:70:09:9f:a5:d1:6b:f4:82:94:40:0f:58:3d:55:54:6c:
         a8:06:c5:2e:ed:c6:14:54:21:ef:8d:ad:98:83:7e:34:e2:e5:
         0c:99:79:57:39:5b:b3:e6:43:37:1f:5c:11:6d:21:bf:0b:0a:
         80:c9:02:d6:9e:fc:36:d0:1b:bd:18:5f:77:61:7c:3e:03:a8:
         09:c6:61:24:93:c1:b9:31:18:78:fd:01:0b:ba:a2:0a:c8:8a:
         a9:94:d4:fd:d1:6d:29:0f:a0:7e:7b:f1:e2:7b:aa:e1:f0:81:
         e5:99:56:7c:77:44:75:40:07:1b:d8:70:20:78:a4:87:52:05:
         94:c7:b4:3b:d7:fd:94:c7:dc:0f:74:cc:b8:f0:0b:41:59:28:
         2e:a1:75:ef:0a:f4:4a:0e:4b:89:4d:1b:8f:29:d3:92:b4:0a:
         34:f0:48:24:3d:8f:54:80:de:1b:15:b6:fe:c8:d2:b2:42:5a:
         b7:e2:8f:d7:78:7d:07:b2:a8:71:01:9d:9e:7f:bc:55:b7:d0:
         e1:e3:d5:c1
-----BEGIN CERTIFICATE-----
MIIDbzCCAlegAwIBAgIEEjRWfjANBgkqhkiG9w0BAQsFADAmMSQwIgYDVQQDFBtD
QTFfc2hhMjU2XzIwNDhfNjU1MzdfdjNfY2EwHhcNMjQwNzI2MDU1MjAyWhcNMzQw
NzI0MDU1MjAyWjAnMSUwIwYDVQQDDBxTUkszX3NoYTI1Nl8yMDQ4XzY1NTM3X3Yz
X2NhMIIBIjANBgkqhkiG9w0BAQEFAAOCAQ8AMIIBCgKCAQEAyYMs0Z3mML1k/ftV
mmuPi2QwvQ+1SD5H+iwZ9S1LWNC0t9s983v/jzbtvTXv2U2BxhE3/OqFHYLm3i0g
yi+5tnxxFrlf/m6yOtVAAM2rPv6ernfcgcPvHNJsgyMxr6m5P9IvRM/f8NXMDOvB
dPyhMed2zsBISqaI0wgm+9dSXeiG6YBK0n/NumnHob3uXDs9tElE4jFyk9Lczd20
C1rK+TTdQIXjY0xKkDoBv2rKxxB8qHoji8H8CyE7eWPaasnApip2D9lmghI+aO4H
n3L7XHuGShWZWsF8lraOXGSDyf6+EV4dAIx1mdxyXM4demANwF+naA2vCpCZL7f2
/EMeZwIDAQABo4GjMIGgMB0GA1UdDgQWBBQg7u5FECV7GcXb5s4GTYZLabQnCjBh
BgNVHSMEWjBYgBSDGNKPYmm0y9zfT7ldM1hgd7tX+qEqpCgwJjEkMCIGA1UEAxQb
Q0ExX3NoYTI1Nl8yMDQ4XzY1NTM3X3YzX2NhghRVWu2CeVdqHBCknmjqI1LnkkOF
jjAPBgNVHRMBAf8EBTADAQH/MAsGA1UdDwQEAwICBDANBgkqhkiG9w0BAQsFAAOC
AQEAe24gEoqEc2AK6ciGVbOhuGmXXA81p5poQr0h6oAj8dr+FhPNyY/DSNzFdslf
FbnTpZgjg09w7/ZwCZ+l0Wv0gpRAD1g9VVRsqAbFLu3GFFQh742tmIN+NOLlDJl5
Vzlbs+ZDNx9cEW0hvwsKgMkC1p78NtAbvRhfd2F8PgOoCcZhJJPBuTEYeP0BC7qi
CsiKqZTU/dFtKQ+gfnvx4nuq4fCB5ZlWfHdEdUAHG9hwIHikh1IFlMe0O9f9lMfc
D3TMuPALQVkoLqF17wr0Sg5LiU0bjynTkrQKNPBIJD2PVIDeGxW2/sjSskJat+KP
13h9B7KocQGdnn+8VbfQ4ePVwQ==
-----END CERTIFICATE-----
