Certificate:
    Data:
        Version: 3 (0x2)
        Serial Number: 305419905 (0x12345681)
        Signature Algorithm: sha256WithRSAEncryption
        Issuer: CN=CA1_sha256_2048_65537_v3_ca
        Validity
            Not Before: Jul 26 05:52:02 2024 GMT
            Not After : Jul 24 05:52:02 2034 GMT
        Subject: CN=SRK4_sha256_2048_65537_v3_ca
        Subject Public Key Info:
            Public Key Algorithm: rsaEncryption
                RSA Public-Key: (2048 bit)
                Modulus:
                    00:bf:cb:6e:70:04:81:b4:38:b1:76:e1:6a:27:fc:
                    a1:9b:f0:fc:8d:f1:bf:91:dc:2f:9a:da:bf:a5:f5:
                    c4:41:a5:9f:c6:c3:79:40:1a:53:00:e7:9e:c6:ac:
                    3c:e7:07:a0:c6:73:41:b1:92:e3:f9:8f:34:d8:ba:
                    7b:f4:10:d3:9c:0b:5c:9d:a4:e8:4f:1d:65:af:e6:
                    c9:eb:cd:0b:42:0c:6c:68:c4:18:2e:1d:58:c0:1c:
                    15:5a:6b:69:4d:e3:af:38:35:46:90:ad:11:5c:ed:
                    2b:f4:ce:b7:0d:6b:bd:24:b1:76:72:0b:dc:b0:06:
                    6a:c4:28:92:2b:c2:43:36:0d:fe:fb:82:5f:df:df:
                    64:9d:aa:39:cc:22:e3:a4:37:69:04:39:83:ba:7b:
                    c1:08:69:63:0c:d8:4d:05:e2:40:12:b4:ea:9a:7d:
                    9c:98:1b:f7:96:11:d9:da:df:71:6c:99:cf:91:cd:
                    b9:f6:cf:bf:86:ee:f5:8d:bb:44:02:90:d5:23:2f:
                    db:96:b2:2e:37:c8:5a:d2:51:5f:b3:04:99:71:0c:
                    3f:a6:4d:55:cf:34:45:9a:5a:8c:70:c0:04:1d:76:
                    5f:d2:34:01:9d:4a:a4:f3:7c:9c:b8:24:24:fd:c4:
                    0f:38:11:72:a1:36:4f:86:96:ce:ce:f6:ad:15:ea:
                    de:2b
                Exponent: 65537 (0x10001)
        X509v3 extensions:
            X509v3 Subject Key Identifier: 
                29:7A:B2:23:00:0B:98:F1:BD:B8:7A:2A:9B:8B:6D:F7:0C:10:D4:23
            X509v3 Authority Key Identifier: 
                keyid:83:18:D2:8F:62:69:B4:CB:DC:DF:4F:B9:5D:33:58:60:77:BB:57:FA
                DirName:/CN=CA1_sha256_2048_65537_v3_ca
                serial:55:5A:ED:82:79:57:6A:1C:10:A4:9E:68:EA:23:52:E7:92:43:85:8E

            X509v3 Basic Constraints: critical
                CA:TRUE
            X509v3 Key Usage: 
                Certificate Sign
    Signature Algorithm: sha256WithRSAEncryption
         7d:7c:8d:f9:8a:f4:12:ff:cb:82:10:ab:3f:ae:c3:a9:23:d1:
         e1:40:c8:a5:89:d0:0d:88:ed:7b:8c:6b:b5:7d:4f:96:b1:ab:
         5e:e8:60:65:97:59:79:17:46:32:e3:e4:ec:fd:81:67:66:04:
         5f:00:19:3f:c3:80:88:54:93:01:d1:6d:13:fb:eb:24:af:0e:
         bd:c2:04:43:97:cb:43:cf:e7:a1:2a:b8:97:fe:db:69:19:7a:
         41:1a:01:ac:45:8f:c3:f0:f4:c2:1e:5f:5a:ae:05:1d:5f:c4:
         e1:e3:c2:7e:26:47:29:b1:58:e5:b1:6b:8e:8f:77:69:a2:e8:
         d7:eb:f0:5d:91:d5:7c:0e:5c:55:ff:da:9e:3e:ef:8c:1c:42:
         bc:84:7e:79:7e:9c:26:51:54:41:4e:1e:a9:f4:5c:bc:9b:95:
         3c:62:63:c9:c6:88:ea:ad:5b:2e:ab:6f:70:58:af:42:89:ed:
         75:8a:e2:c6:78:55:63:72:a0:ae:04:fc:59:b6:21:a3:f4:6a:
         00:85:ce:05:69:f1:e1:18:fb:a8:f7:a7:4f:74:b8:90:02:7a:
         5f:6e:a2:6e:d0:00:01:89:5c:83:45:3b:07:d9:62:71:95:2c:
         a6:f2:e8:23:22:07:91:e9:87:f5:ee:09:68:23:13:38:21:24:
         03:ef:01:32
-----BEGIN CERTIFICATE-----
MIIDbzCCAlegAwIBAgIEEjRWgTANBgkqhkiG9w0BAQsFADAmMSQwIgYDVQQDFBtD
QTFfc2hhMjU2XzIwNDhfNjU1MzdfdjNfY2EwHhcNMjQwNzI2MDU1MjAyWhcNMzQw
NzI0MDU1MjAyWjAnMSUwIwYDVQQDDBxTUks0X3NoYTI1Nl8yMDQ4XzY1NTM3X3Yz
X2NhMIIBIjANBgkqhkiG9w0BAQEFAAOCAQ8AMIIBCgKCAQEAv8tucASBtDixduFq
J/yhm/D8jfG/kdwvmtq/pfXEQaWfxsN5QBpTAOeexqw85wegxnNBsZLj+Y802Lp7
9BDTnAtcnaToTx1lr+bJ680LQgxsaMQYLh1YwBwVWmtpTeOvODVGkK0RXO0r9M63
DWu9JLF2cgvcsAZqxCiSK8JDNg3++4Jf399knao5zCLjpDdpBDmDunvBCGljDNhN
BeJAErTqmn2cmBv3lhHZ2t9xbJnPkc259s+/hu71jbtEApDVIy/blrIuN8ha0lFf
swSZcQw/pk1VzzRFmlqMcMAEHXZf0jQBnUqk83ycuCQk/cQPOBFyoTZPhpbOzvat
FereKwIDAQABo4GjMIGgMB0GA1UdDgQWBBQperIjAAuY8b24eiqbi233DBDUIzBh
BgNVHSMEWjBYgBSDGNKPYmm0y9zfT7ldM1hgd7tX+qEqpCgwJjEkMCIGA1UEAxQb
Q0ExX3NoYTI1Nl8yMDQ4XzY1NTM3X3YzX2NhghRVWu2CeVdqHBCknmjqI1LnkkOF
jjAPBgNVHRMBAf8EBTADAQH/MAsGA1UdDwQEAwICBDANBgkqhkiG9w0BAQsFAAOC
AQEAfXyN+Yr0Ev/LghCrP67DqSPR4UDIpYnQDYjte4xrtX1PlrGrXuhgZZdZeRdG
MuPk7P2BZ2YEXwAZP8OAiFSTAdFtE/vrJK8OvcIEQ5fLQ8/noSq4l/7baRl6QRoB
rEWPw/D0wh5fWq4FHV/E4ePCfiZHKbFY5bFrjo93aaLo1+vwXZHVfA5cVf/anj7v
jBxCvIR+eX6cJlFUQU4eqfRcvJuVPGJjycaI6q1bLqtvcFivQontdYrixnhVY3Kg
rgT8WbYho/RqAIXOBWnx4Rj7qPenT3S4kAJ6X26ibtAAAYlcg0U7B9licZUspvLo
IyIHkemH9e4JaCMTOCEkA+8BMg==
-----END CERTIFICATE-----
